target datalayout = "e-m:e-p270:32:32-p271:32:32-p272:64:64-i64:64-i128:128-f80:128-n8:16:32:64-S128"
target triple = "x86_64-pc-linux-gnu"

%"class.std::__exception_ptr::exception_ptr" = type { ptr }

@_ZTISt9bad_alloc = external constant ptr
@_ZTISt12domain_error = external constant ptr
@_ZTISt16invalid_argument = external constant ptr
@_ZTISt12length_error = external constant ptr
@_ZTISt12out_of_range = external constant ptr
@_ZTISt11range_error = external constant ptr
@_ZTISt14overflow_error = external constant ptr
@_ZTISt9exception = external constant ptr
@PyExc_RuntimeError = external global ptr, align 8
@PyExc_OverflowError = external global ptr, align 8
@PyExc_ValueError = external global ptr, align 8
@PyExc_IndexError = external global ptr, align 8
@PyExc_MemoryError = external global ptr, align 8

; Function Attrs: inlinehint mustprogress nounwind uwtable
define linkonce_odr void @_ZNSt15__exception_ptr13exception_ptrD2Ev(ptr noundef nonnull align 8 dereferenceable(8) %0) unnamed_addr #2 comdat align 2 {
  %2 = alloca ptr, align 8
  store ptr %0, ptr %2, align 8
  %3 = load ptr, ptr %2, align 8
  %4 = getelementptr inbounds nuw %"class.std::__exception_ptr::exception_ptr", ptr %3, i32 0, i32 0
  %5 = load ptr, ptr %4, align 8
  %6 = icmp ne ptr %5, null
  br i1 %6, label %7, label %8

7:                                                ; preds = %1
  call void @_ZNSt15__exception_ptr13exception_ptr10_M_releaseEv(ptr noundef nonnull align 8 dereferenceable(8) %3) #19
  br label %8

8:                                                ; preds = %7, %1
  ret void
}

; Function Attrs: inlinehint mustprogress nounwind uwtable
define linkonce_odr void @_ZNSt15__exception_ptr13exception_ptrC2ERKS0_(ptr noundef nonnull align 8 dereferenceable(8) %0, ptr noundef nonnull align 8 dereferenceable(8) %1) unnamed_addr #2 comdat align 2 {
  %3 = alloca ptr, align 8
  %4 = alloca ptr, align 8
  store ptr %0, ptr %3, align 8
  store ptr %1, ptr %4, align 8
  %5 = load ptr, ptr %3, align 8
  %6 = getelementptr inbounds nuw %"class.std::__exception_ptr::exception_ptr", ptr %5, i32 0, i32 0
  %7 = load ptr, ptr %4, align 8
  %8 = getelementptr inbounds nuw %"class.std::__exception_ptr::exception_ptr", ptr %7, i32 0, i32 0
  %9 = load ptr, ptr %8, align 8
  store ptr %9, ptr %6, align 8
  %10 = getelementptr inbounds nuw %"class.std::__exception_ptr::exception_ptr", ptr %5, i32 0, i32 0
  %11 = load ptr, ptr %10, align 8
  %12 = icmp ne ptr %11, null
  br i1 %12, label %13, label %14

13:                                               ; preds = %2
  call void @_ZNSt15__exception_ptr13exception_ptr9_M_addrefEv(ptr noundef nonnull align 8 dereferenceable(8) %5) #19
  br label %14

14:                                               ; preds = %13, %2
  ret void
}

; Function Attrs: mustprogress uwtable
define hidden void @_ZN8nanobind6detail28default_exception_translatorERKNSt15__exception_ptr13exception_ptrEPv(ptr noundef nonnull align 8 dereferenceable(8) %0, ptr noundef %1) #0 personality ptr @__gxx_personality_v0 {
  %3 = alloca ptr, align 8
  %4 = alloca ptr, align 8
  %5 = alloca %"class.std::__exception_ptr::exception_ptr", align 8
  %6 = alloca ptr, align 8
  %7 = alloca i32, align 4
  %8 = alloca ptr, align 8
  %9 = alloca ptr, align 8
  %10 = alloca ptr, align 8
  %11 = alloca ptr, align 8
  %12 = alloca ptr, align 8
  %13 = alloca ptr, align 8
  %14 = alloca ptr, align 8
  %15 = alloca ptr, align 8
  store ptr %0, ptr %3, align 8
  store ptr %1, ptr %4, align 8
  %16 = load ptr, ptr %3, align 8
  call void @_ZNSt15__exception_ptr13exception_ptrC2ERKS0_(ptr noundef nonnull align 8 dereferenceable(8) %5, ptr noundef nonnull align 8 dereferenceable(8) %16) #19
  invoke void @_ZSt17rethrow_exceptionNSt15__exception_ptr13exception_ptrE(ptr noundef %5) #20
          to label %17 unwind label %18

17:                                               ; preds = %2
  unreachable

18:                                               ; preds = %2
  %19 = landingpad { ptr, i32 }
          cleanup
          catch ptr @_ZTISt9bad_alloc
          catch ptr @_ZTISt12domain_error
          catch ptr @_ZTISt16invalid_argument
          catch ptr @_ZTISt12length_error
          catch ptr @_ZTISt12out_of_range
          catch ptr @_ZTISt11range_error
          catch ptr @_ZTISt14overflow_error
          catch ptr @_ZTISt9exception
  %20 = extractvalue { ptr, i32 } %19, 0
  store ptr %20, ptr %6, align 8
  %21 = extractvalue { ptr, i32 } %19, 1
  store i32 %21, ptr %7, align 4
  call void @_ZNSt15__exception_ptr13exception_ptrD2Ev(ptr noundef nonnull align 8 dereferenceable(8) %5) #19
  br label %22

22:                                               ; preds = %18
  %23 = load i32, ptr %7, align 4
  %24 = call i32 @llvm.eh.typeid.for.p0(ptr @_ZTISt9bad_alloc) #19
  %25 = icmp eq i32 %23, %24
  br i1 %25, label %26, label %37

26:                                               ; preds = %22
  call void @llvm.lifetime.start.p0(i64 8, ptr %15) #19
  %27 = load ptr, ptr %6, align 8
  %28 = call ptr @__cxa_begin_catch(ptr %27) #19
  store ptr %28, ptr %15, align 8
  %29 = load ptr, ptr @PyExc_MemoryError, align 8
  %30 = load ptr, ptr %15, align 8
  %31 = load ptr, ptr %30, align 8
  %32 = getelementptr inbounds ptr, ptr %31, i64 2
  %33 = load ptr, ptr %32, align 8
  %34 = call noundef ptr %33(ptr noundef nonnull align 8 dereferenceable(8) %30) #19
  invoke void @PyErr_SetString(ptr noundef %29, ptr noundef %34)
          to label %35 unwind label %163

35:                                               ; preds = %26
  call void @__cxa_end_catch()
  call void @llvm.lifetime.end.p0(i64 8, ptr %15) #19
  br label %36

36:                                               ; preds = %35, %49, %62, %75, %88, %101, %114, %127
  ret void

37:                                               ; preds = %22
  %38 = call i32 @llvm.eh.typeid.for.p0(ptr @_ZTISt12domain_error) #19
  %39 = icmp eq i32 %23, %38
  br i1 %39, label %40, label %50

40:                                               ; preds = %37
  call void @llvm.lifetime.start.p0(i64 8, ptr %14) #19
  %41 = load ptr, ptr %6, align 8
  %42 = call ptr @__cxa_begin_catch(ptr %41) #19
  store ptr %42, ptr %14, align 8
  %43 = load ptr, ptr @PyExc_ValueError, align 8
  %44 = load ptr, ptr %14, align 8
  %45 = load ptr, ptr %44, align 8
  %46 = getelementptr inbounds ptr, ptr %45, i64 2
  %47 = load ptr, ptr %46, align 8
  %48 = call noundef ptr %47(ptr noundef nonnull align 8 dereferenceable(16) %44) #19
  invoke void @PyErr_SetString(ptr noundef %43, ptr noundef %48)
          to label %49 unwind label %158

49:                                               ; preds = %40
  call void @__cxa_end_catch()
  call void @llvm.lifetime.end.p0(i64 8, ptr %14) #19
  br label %36

50:                                               ; preds = %37
  %51 = call i32 @llvm.eh.typeid.for.p0(ptr @_ZTISt16invalid_argument) #19
  %52 = icmp eq i32 %23, %51
  br i1 %52, label %53, label %63

53:                                               ; preds = %50
  call void @llvm.lifetime.start.p0(i64 8, ptr %13) #19
  %54 = load ptr, ptr %6, align 8
  %55 = call ptr @__cxa_begin_catch(ptr %54) #19
  store ptr %55, ptr %13, align 8
  %56 = load ptr, ptr @PyExc_ValueError, align 8
  %57 = load ptr, ptr %13, align 8
  %58 = load ptr, ptr %57, align 8
  %59 = getelementptr inbounds ptr, ptr %58, i64 2
  %60 = load ptr, ptr %59, align 8
  %61 = call noundef ptr %60(ptr noundef nonnull align 8 dereferenceable(16) %57) #19
  invoke void @PyErr_SetString(ptr noundef %56, ptr noundef %61)
          to label %62 unwind label %153

62:                                               ; preds = %53
  call void @__cxa_end_catch()
  call void @llvm.lifetime.end.p0(i64 8, ptr %13) #19
  br label %36

63:                                               ; preds = %50
  %64 = call i32 @llvm.eh.typeid.for.p0(ptr @_ZTISt12length_error) #19
  %65 = icmp eq i32 %23, %64
  br i1 %65, label %66, label %76

66:                                               ; preds = %63
  call void @llvm.lifetime.start.p0(i64 8, ptr %12) #19
  %67 = load ptr, ptr %6, align 8
  %68 = call ptr @__cxa_begin_catch(ptr %67) #19
  store ptr %68, ptr %12, align 8
  %69 = load ptr, ptr @PyExc_ValueError, align 8
  %70 = load ptr, ptr %12, align 8
  %71 = load ptr, ptr %70, align 8
  %72 = getelementptr inbounds ptr, ptr %71, i64 2
  %73 = load ptr, ptr %72, align 8
  %74 = call noundef ptr %73(ptr noundef nonnull align 8 dereferenceable(16) %70) #19
  invoke void @PyErr_SetString(ptr noundef %69, ptr noundef %74)
          to label %75 unwind label %148

75:                                               ; preds = %66
  call void @__cxa_end_catch()
  call void @llvm.lifetime.end.p0(i64 8, ptr %12) #19
  br label %36

76:                                               ; preds = %63
  %77 = call i32 @llvm.eh.typeid.for.p0(ptr @_ZTISt12out_of_range) #19
  %78 = icmp eq i32 %23, %77
  br i1 %78, label %79, label %89

79:                                               ; preds = %76
  call void @llvm.lifetime.start.p0(i64 8, ptr %11) #19
  %80 = load ptr, ptr %6, align 8
  %81 = call ptr @__cxa_begin_catch(ptr %80) #19
  store ptr %81, ptr %11, align 8
  %82 = load ptr, ptr @PyExc_IndexError, align 8
  %83 = load ptr, ptr %11, align 8
  %84 = load ptr, ptr %83, align 8
  %85 = getelementptr inbounds ptr, ptr %84, i64 2
  %86 = load ptr, ptr %85, align 8
  %87 = call noundef ptr %86(ptr noundef nonnull align 8 dereferenceable(16) %83) #19
  invoke void @PyErr_SetString(ptr noundef %82, ptr noundef %87)
          to label %88 unwind label %143

88:                                               ; preds = %79
  call void @__cxa_end_catch()
  call void @llvm.lifetime.end.p0(i64 8, ptr %11) #19
  br label %36

89:                                               ; preds = %76
  %90 = call i32 @llvm.eh.typeid.for.p0(ptr @_ZTISt11range_error) #19
  %91 = icmp eq i32 %23, %90
  br i1 %91, label %92, label %102

92:                                               ; preds = %89
  call void @llvm.lifetime.start.p0(i64 8, ptr %10) #19
  %93 = load ptr, ptr %6, align 8
  %94 = call ptr @__cxa_begin_catch(ptr %93) #19
  store ptr %94, ptr %10, align 8
  %95 = load ptr, ptr @PyExc_ValueError, align 8
  %96 = load ptr, ptr %10, align 8
  %97 = load ptr, ptr %96, align 8
  %98 = getelementptr inbounds ptr, ptr %97, i64 2
  %99 = load ptr, ptr %98, align 8
  %100 = call noundef ptr %99(ptr noundef nonnull align 8 dereferenceable(16) %96) #19
  invoke void @PyErr_SetString(ptr noundef %95, ptr noundef %100)
          to label %101 unwind label %138

101:                                              ; preds = %92
  call void @__cxa_end_catch()
  call void @llvm.lifetime.end.p0(i64 8, ptr %10) #19
  br label %36

102:                                              ; preds = %89
  %103 = call i32 @llvm.eh.typeid.for.p0(ptr @_ZTISt14overflow_error) #19
  %104 = icmp eq i32 %23, %103
  br i1 %104, label %105, label %115

105:                                              ; preds = %102
  call void @llvm.lifetime.start.p0(i64 8, ptr %9) #19
  %106 = load ptr, ptr %6, align 8
  %107 = call ptr @__cxa_begin_catch(ptr %106) #19
  store ptr %107, ptr %9, align 8
  %108 = load ptr, ptr @PyExc_OverflowError, align 8
  %109 = load ptr, ptr %9, align 8
  %110 = load ptr, ptr %109, align 8
  %111 = getelementptr inbounds ptr, ptr %110, i64 2
  %112 = load ptr, ptr %111, align 8
  %113 = call noundef ptr %112(ptr noundef nonnull align 8 dereferenceable(16) %109) #19
  invoke void @PyErr_SetString(ptr noundef %108, ptr noundef %113)
          to label %114 unwind label %133

114:                                              ; preds = %105
  call void @__cxa_end_catch()
  call void @llvm.lifetime.end.p0(i64 8, ptr %9) #19
  br label %36

115:                                              ; preds = %102
  %116 = call i32 @llvm.eh.typeid.for.p0(ptr @_ZTISt9exception) #19
  %117 = icmp eq i32 %23, %116
  br i1 %117, label %118, label %168

118:                                              ; preds = %115
  call void @llvm.lifetime.start.p0(i64 8, ptr %8) #19
  %119 = load ptr, ptr %6, align 8
  %120 = call ptr @__cxa_begin_catch(ptr %119) #19
  store ptr %120, ptr %8, align 8
  %121 = load ptr, ptr @PyExc_RuntimeError, align 8
  %122 = load ptr, ptr %8, align 8
  %123 = load ptr, ptr %122, align 8
  %124 = getelementptr inbounds ptr, ptr %123, i64 2
  %125 = load ptr, ptr %124, align 8
  %126 = call noundef ptr %125(ptr noundef nonnull align 8 dereferenceable(8) %122) #19
  invoke void @PyErr_SetString(ptr noundef %121, ptr noundef %126)
          to label %127 unwind label %128

127:                                              ; preds = %118
  call void @__cxa_end_catch()
  call void @llvm.lifetime.end.p0(i64 8, ptr %8) #19
  br label %36

128:                                              ; preds = %118
  %129 = landingpad { ptr, i32 }
          cleanup
  %130 = extractvalue { ptr, i32 } %129, 0
  store ptr %130, ptr %6, align 8
  %131 = extractvalue { ptr, i32 } %129, 1
  store i32 %131, ptr %7, align 4
  invoke void @__cxa_end_catch()
          to label %132 unwind label %173

132:                                              ; preds = %128
  call void @llvm.lifetime.end.p0(i64 8, ptr %8) #19
  br label %168

133:                                              ; preds = %105
  %134 = landingpad { ptr, i32 }
          cleanup
  %135 = extractvalue { ptr, i32 } %134, 0
  store ptr %135, ptr %6, align 8
  %136 = extractvalue { ptr, i32 } %134, 1
  store i32 %136, ptr %7, align 4
  invoke void @__cxa_end_catch()
          to label %137 unwind label %173

137:                                              ; preds = %133
  call void @llvm.lifetime.end.p0(i64 8, ptr %9) #19
  br label %168

138:                                              ; preds = %92
  %139 = landingpad { ptr, i32 }
          cleanup
  %140 = extractvalue { ptr, i32 } %139, 0
  store ptr %140, ptr %6, align 8
  %141 = extractvalue { ptr, i32 } %139, 1
  store i32 %141, ptr %7, align 4
  invoke void @__cxa_end_catch()
          to label %142 unwind label %173

142:                                              ; preds = %138
  call void @llvm.lifetime.end.p0(i64 8, ptr %10) #19
  br label %168

143:                                              ; preds = %79
  %144 = landingpad { ptr, i32 }
          cleanup
  %145 = extractvalue { ptr, i32 } %144, 0
  store ptr %145, ptr %6, align 8
  %146 = extractvalue { ptr, i32 } %144, 1
  store i32 %146, ptr %7, align 4
  invoke void @__cxa_end_catch()
          to label %147 unwind label %173

147:                                              ; preds = %143
  call void @llvm.lifetime.end.p0(i64 8, ptr %11) #19
  br label %168

148:                                              ; preds = %66
  %149 = landingpad { ptr, i32 }
          cleanup
  %150 = extractvalue { ptr, i32 } %149, 0
  store ptr %150, ptr %6, align 8
  %151 = extractvalue { ptr, i32 } %149, 1
  store i32 %151, ptr %7, align 4
  invoke void @__cxa_end_catch()
          to label %152 unwind label %173

152:                                              ; preds = %148
  call void @llvm.lifetime.end.p0(i64 8, ptr %12) #19
  br label %168

153:                                              ; preds = %53
  %154 = landingpad { ptr, i32 }
          cleanup
  %155 = extractvalue { ptr, i32 } %154, 0
  store ptr %155, ptr %6, align 8
  %156 = extractvalue { ptr, i32 } %154, 1
  store i32 %156, ptr %7, align 4
  invoke void @__cxa_end_catch()
          to label %157 unwind label %173

157:                                              ; preds = %153
  call void @llvm.lifetime.end.p0(i64 8, ptr %13) #19
  br label %168

158:                                              ; preds = %40
  %159 = landingpad { ptr, i32 }
          cleanup
  %160 = extractvalue { ptr, i32 } %159, 0
  store ptr %160, ptr %6, align 8
  %161 = extractvalue { ptr, i32 } %159, 1
  store i32 %161, ptr %7, align 4
  invoke void @__cxa_end_catch()
          to label %162 unwind label %173

162:                                              ; preds = %158
  call void @llvm.lifetime.end.p0(i64 8, ptr %14) #19
  br label %168

163:                                              ; preds = %26
  %164 = landingpad { ptr, i32 }
          cleanup
  %165 = extractvalue { ptr, i32 } %164, 0
  store ptr %165, ptr %6, align 8
  %166 = extractvalue { ptr, i32 } %164, 1
  store i32 %166, ptr %7, align 4
  invoke void @__cxa_end_catch()
          to label %167 unwind label %173

167:                                              ; preds = %163
  call void @llvm.lifetime.end.p0(i64 8, ptr %15) #19
  br label %168

168:                                              ; preds = %167, %162, %157, %152, %147, %142, %137, %132, %115
  %169 = load ptr, ptr %6, align 8
  %170 = load i32, ptr %7, align 4
  %171 = insertvalue { ptr, i32 } poison, ptr %169, 0
  %172 = insertvalue { ptr, i32 } %171, i32 %170, 1
  resume { ptr, i32 } %172

173:                                              ; preds = %163, %158, %153, %148, %143, %138, %133, %128
  %174 = landingpad { ptr, i32 }
          catch ptr null
  %175 = extractvalue { ptr, i32 } %174, 0
  call void @__clang_call_terminate(ptr %175) #21
  unreachable
}