; Function Attrs: mustprogress uwtable
define hidden void @_ZN8nanobind6detail28default_exception_translatorERKNSt15__exception_ptr13exception_ptrEPv(ptr noundef nonnull readonly align 8 captures(none) dereferenceable(8) %0, ptr readnone captures(none) %1) #0 personality ptr @__gxx_personality_v0 {
  %3 = alloca %"class.std::__exception_ptr::exception_ptr", align 8
  %4 = load ptr, ptr %0, align 8
  store ptr %4, ptr %3, align 8
  %.not.i = icmp eq ptr %4, null
  br i1 %.not.i, label %_ZNSt15__exception_ptr13exception_ptrC2ERKS0_.exit, label %5

5:                                                ; preds = %2
  call void @_ZNSt15__exception_ptr13exception_ptr9_M_addrefEv(ptr noundef nonnull align 8 dereferenceable(8) %3) #22
  br label %_ZNSt15__exception_ptr13exception_ptrC2ERKS0_.exit

_ZNSt15__exception_ptr13exception_ptrC2ERKS0_.exit: ; preds = %2, %5
  invoke void @_ZSt17rethrow_exceptionNSt15__exception_ptr13exception_ptrE(ptr noundef nonnull %3) #23
          to label %6 unwind label %7

6:                                                ; preds = %_ZNSt15__exception_ptr13exception_ptrC2ERKS0_.exit
  unreachable

7:                                                ; preds = %_ZNSt15__exception_ptr13exception_ptrC2ERKS0_.exit
  %8 = landingpad { ptr, i32 }
          cleanup
          catch ptr @_ZTISt9bad_alloc
          catch ptr @_ZTISt12domain_error
          catch ptr @_ZTISt16invalid_argument
          catch ptr @_ZTISt12length_error
          catch ptr @_ZTISt12out_of_range
          catch ptr @_ZTISt11range_error
          catch ptr @_ZTISt14overflow_error
          catch ptr @_ZTISt9exception
  %9 = extractvalue { ptr, i32 } %8, 0
  %10 = extractvalue { ptr, i32 } %8, 1
  %11 = load ptr, ptr %3, align 8
  %.not.i21 = icmp eq ptr %11, null
  br i1 %.not.i21, label %_ZNSt15__exception_ptr13exception_ptrD2Ev.exit, label %12

12:                                               ; preds = %7
  call void @_ZNSt15__exception_ptr13exception_ptr10_M_releaseEv(ptr noundef nonnull align 8 dereferenceable(8) %3) #22
  br label %_ZNSt15__exception_ptr13exception_ptrD2Ev.exit

_ZNSt15__exception_ptr13exception_ptrD2Ev.exit:   ; preds = %7, %12
  %13 = call i32 @llvm.eh.typeid.for.p0(ptr nonnull @_ZTISt9bad_alloc) #22
  %14 = icmp eq i32 %10, %13
  br i1 %14, label %15, label %23

15:                                               ; preds = %_ZNSt15__exception_ptr13exception_ptrD2Ev.exit
  %16 = call ptr @__cxa_begin_catch(ptr %9) #22
  %17 = load ptr, ptr @PyExc_MemoryError, align 8
  %18 = load ptr, ptr %16, align 8
  %19 = getelementptr inbounds nuw i8, ptr %18, i64 16
  %20 = load ptr, ptr %19, align 8
  %21 = call noundef ptr %20(ptr noundef nonnull align 8 dereferenceable(8) %16) #22
  invoke void @PyErr_SetString(ptr noundef %17, ptr noundef %21)
          to label %22 unwind label %107

22:                                               ; preds = %15, %86, %76, %66, %56, %46, %36, %26
  call void @__cxa_end_catch()
  ret void

23:                                               ; preds = %_ZNSt15__exception_ptr13exception_ptrD2Ev.exit
  %24 = call i32 @llvm.eh.typeid.for.p0(ptr nonnull @_ZTISt12domain_error) #22
  %25 = icmp eq i32 %10, %24
  br i1 %25, label %26, label %33

26:                                               ; preds = %23
  %27 = call ptr @__cxa_begin_catch(ptr %9) #22
  %28 = load ptr, ptr @PyExc_ValueError, align 8
  %29 = load ptr, ptr %27, align 8
  %30 = getelementptr inbounds nuw i8, ptr %29, i64 16
  %31 = load ptr, ptr %30, align 8
  %32 = call noundef ptr %31(ptr noundef nonnull align 8 dereferenceable(16) %27) #22
  invoke void @PyErr_SetString(ptr noundef %28, ptr noundef %32)
          to label %22 unwind label %105

33:                                               ; preds = %23
  %34 = call i32 @llvm.eh.typeid.for.p0(ptr nonnull @_ZTISt16invalid_argument) #22
  %35 = icmp eq i32 %10, %34
  br i1 %35, label %36, label %43

36:                                               ; preds = %33
  %37 = call ptr @__cxa_begin_catch(ptr %9) #22
  %38 = load ptr, ptr @PyExc_ValueError, align 8
  %39 = load ptr, ptr %37, align 8
  %40 = getelementptr inbounds nuw i8, ptr %39, i64 16
  %41 = load ptr, ptr %40, align 8
  %42 = call noundef ptr %41(ptr noundef nonnull align 8 dereferenceable(16) %37) #22
  invoke void @PyErr_SetString(ptr noundef %38, ptr noundef %42)
          to label %22 unwind label %103

43:                                               ; preds = %33
  %44 = call i32 @llvm.eh.typeid.for.p0(ptr nonnull @_ZTISt12length_error) #22
  %45 = icmp eq i32 %10, %44
  br i1 %45, label %46, label %53

46:                                               ; preds = %43
  %47 = call ptr @__cxa_begin_catch(ptr %9) #22
  %48 = load ptr, ptr @PyExc_ValueError, align 8
  %49 = load ptr, ptr %47, align 8
  %50 = getelementptr inbounds nuw i8, ptr %49, i64 16
  %51 = load ptr, ptr %50, align 8
  %52 = call noundef ptr %51(ptr noundef nonnull align 8 dereferenceable(16) %47) #22
  invoke void @PyErr_SetString(ptr noundef %48, ptr noundef %52)
          to label %22 unwind label %101

53:                                               ; preds = %43
  %54 = call i32 @llvm.eh.typeid.for.p0(ptr nonnull @_ZTISt12out_of_range) #22
  %55 = icmp eq i32 %10, %54
  br i1 %55, label %56, label %63

56:                                               ; preds = %53
  %57 = call ptr @__cxa_begin_catch(ptr %9) #22
  %58 = load ptr, ptr @PyExc_IndexError, align 8
  %59 = load ptr, ptr %57, align 8
  %60 = getelementptr inbounds nuw i8, ptr %59, i64 16
  %61 = load ptr, ptr %60, align 8
  %62 = call noundef ptr %61(ptr noundef nonnull align 8 dereferenceable(16) %57) #22
  invoke void @PyErr_SetString(ptr noundef %58, ptr noundef %62)
          to label %22 unwind label %99

63:                                               ; preds = %53
  %64 = call i32 @llvm.eh.typeid.for.p0(ptr nonnull @_ZTISt11range_error) #22
  %65 = icmp eq i32 %10, %64
  br i1 %65, label %66, label %73

66:                                               ; preds = %63
  %67 = call ptr @__cxa_begin_catch(ptr %9) #22
  %68 = load ptr, ptr @PyExc_ValueError, align 8
  %69 = load ptr, ptr %67, align 8
  %70 = getelementptr inbounds nuw i8, ptr %69, i64 16
  %71 = load ptr, ptr %70, align 8
  %72 = call noundef ptr %71(ptr noundef nonnull align 8 dereferenceable(16) %67) #22
  invoke void @PyErr_SetString(ptr noundef %68, ptr noundef %72)
          to label %22 unwind label %97

73:                                               ; preds = %63
  %74 = call i32 @llvm.eh.typeid.for.p0(ptr nonnull @_ZTISt14overflow_error) #22
  %75 = icmp eq i32 %10, %74
  br i1 %75, label %76, label %83

76:                                               ; preds = %73
  %77 = call ptr @__cxa_begin_catch(ptr %9) #22
  %78 = load ptr, ptr @PyExc_OverflowError, align 8
  %79 = load ptr, ptr %77, align 8
  %80 = getelementptr inbounds nuw i8, ptr %79, i64 16
  %81 = load ptr, ptr %80, align 8
  %82 = call noundef ptr %81(ptr noundef nonnull align 8 dereferenceable(16) %77) #22
  invoke void @PyErr_SetString(ptr noundef %78, ptr noundef %82)
          to label %22 unwind label %95

83:                                               ; preds = %73
  %84 = call i32 @llvm.eh.typeid.for.p0(ptr nonnull @_ZTISt9exception) #22
  %85 = icmp eq i32 %10, %84
  br i1 %85, label %86, label %109

86:                                               ; preds = %83
  %87 = call ptr @__cxa_begin_catch(ptr %9) #22
  %88 = load ptr, ptr @PyExc_RuntimeError, align 8
  %89 = load ptr, ptr %87, align 8
  %90 = getelementptr inbounds nuw i8, ptr %89, i64 16
  %91 = load ptr, ptr %90, align 8
  %92 = call noundef ptr %91(ptr noundef nonnull align 8 dereferenceable(8) %87) #22
  invoke void @PyErr_SetString(ptr noundef %88, ptr noundef %92)
          to label %22 unwind label %93

93:                                               ; preds = %86
  %94 = landingpad { ptr, i32 }
          cleanup
  invoke void @__cxa_end_catch()
          to label %109 unwind label %110

95:                                               ; preds = %76
  %96 = landingpad { ptr, i32 }
          cleanup
  invoke void @__cxa_end_catch()
          to label %109 unwind label %110

97:                                               ; preds = %66
  %98 = landingpad { ptr, i32 }
          cleanup
  invoke void @__cxa_end_catch()
          to label %109 unwind label %110

99:                                               ; preds = %56
  %100 = landingpad { ptr, i32 }
          cleanup
  invoke void @__cxa_end_catch()
          to label %109 unwind label %110

101:                                              ; preds = %46
  %102 = landingpad { ptr, i32 }
          cleanup
  invoke void @__cxa_end_catch()
          to label %109 unwind label %110

103:                                              ; preds = %36
  %104 = landingpad { ptr, i32 }
          cleanup
  invoke void @__cxa_end_catch()
          to label %109 unwind label %110

105:                                              ; preds = %26
  %106 = landingpad { ptr, i32 }
          cleanup
  invoke void @__cxa_end_catch()
          to label %109 unwind label %110

107:                                              ; preds = %15
  %108 = landingpad { ptr, i32 }
          cleanup
  invoke void @__cxa_end_catch()
          to label %109 unwind label %110

109:                                              ; preds = %107, %105, %103, %101, %99, %97, %95, %93, %83
  %.merged = phi { ptr, i32 } [ %8, %83 ], [ %94, %93 ], [ %96, %95 ], [ %98, %97 ], [ %100, %99 ], [ %102, %101 ], [ %104, %103 ], [ %106, %105 ], [ %108, %107 ]
  resume { ptr, i32 } %.merged

110:                                              ; preds = %107, %105, %103, %101, %99, %97, %95, %93
  %111 = landingpad { ptr, i32 }
          catch ptr null
  %112 = extractvalue { ptr, i32 } %111, 0
  call void @__clang_call_terminate(ptr %112) #24
  unreachable
}